target datalayout = "e-m:e-p270:32:32-p271:32:32-p272:64:64-i64:64-i128:128-f80:128-n8:16:32:64-S128"
target triple = "x86_64-pc-linux-gnu"

%struct.dt_pthread_mutex_t = type { %union.pthread_mutex_t }
%union.pthread_mutex_t = type { %struct.__pthread_mutex_s }
%struct.__pthread_mutex_s = type { i32, i32, i32, i32, i32, i16, i16, %struct.__pthread_internal_list }
%struct.__pthread_internal_list = type { ptr, ptr }
%struct.dt_iop_module_t = type { i32, ptr, ptr, ptr, ptr, ptr, ptr, ptr, ptr, ptr, ptr, ptr, ptr, ptr, ptr, ptr, ptr, ptr, ptr, ptr, ptr, ptr, ptr, ptr, ptr, ptr, ptr, ptr, ptr, ptr, ptr, ptr, ptr, ptr, ptr, ptr, ptr, ptr, ptr, ptr, ptr, ptr, ptr, ptr, ptr, ptr, ptr, ptr, ptr, ptr, ptr, ptr, ptr, ptr, ptr, ptr, ptr, [20 x i8], i32, i32, i32, i32, i32, i32, i32, [8 x i8], [4 x float], [4 x float], [4 x float], [4 x float], [4 x float], [4 x float], ptr, %struct.dt_dev_histogram_stats_t, [4 x i32], i32, i32, ptr, i32, i32, ptr, ptr, i32, ptr, %struct.dt_pthread_mutex_t, ptr, ptr, ptr, ptr, %struct.anon.1, ptr, ptr, ptr, ptr, ptr, ptr, ptr, i32, ptr, ptr, ptr, ptr, ptr, ptr, ptr, i32, ptr, i32, [128 x i8], i32, ptr, ptr, i32, [12 x i8] }
%struct.dt_dev_histogram_stats_t = type { i32, i64, i32, i32 }
%struct.anon.1 = type { %struct.anon.2, %struct.anon.3 }
%struct.anon.2 = type { ptr, ptr }
%struct.anon.3 = type { ptr, i32 }

; Function Attrs: inlinehint nounwind uwtable
define internal i32 @_blend_default_module_blend_colorspace(ptr noundef %0, i32 noundef %1) #3 {
  %3 = alloca i32, align 4
  %4 = alloca ptr, align 8
  %5 = alloca i32, align 4
  store ptr %0, ptr %4, align 8, !tbaa !6
  store i32 %1, ptr %5, align 4, !tbaa !11
  %6 = load ptr, ptr %4, align 8, !tbaa !6
  %7 = getelementptr inbounds nuw %struct.dt_iop_module_t, ptr %6, i32 0, i32 8
  %8 = load ptr, ptr %7, align 16, !tbaa !13
  %9 = call i32 %8()
  %10 = and i32 %9, 2
  %11 = icmp ne i32 %10, 0
  br i1 %11, label %12, label %27

12:                                               ; preds = %2
  %13 = load ptr, ptr %4, align 8, !tbaa !6
  %14 = getelementptr inbounds nuw %struct.dt_iop_module_t, ptr %13, i32 0, i32 18
  %15 = load ptr, ptr %14, align 16, !tbaa !29
  %16 = load ptr, ptr %4, align 8, !tbaa !6
  %17 = call i32 %15(ptr noundef %16, ptr noundef null, ptr noundef null)
  switch i32 %17, label %26 [
    i32 0, label %18
    i32 1, label %19
    i32 3, label %19
    i32 2, label %20
    i32 4, label %24
    i32 5, label %25
  ]

18:                                               ; preds = %12
  store i32 1, ptr %3, align 4
  br label %28

19:                                               ; preds = %12, %12
  store i32 2, ptr %3, align 4
  br label %28

20:                                               ; preds = %12
  %21 = load i32, ptr %5, align 4, !tbaa !11
  %22 = icmp ne i32 %21, 0
  %23 = select i1 %22, i32 4, i32 3
  store i32 %23, ptr %3, align 4
  br label %28

24:                                               ; preds = %12
  store i32 3, ptr %3, align 4
  br label %28

25:                                               ; preds = %12
  store i32 4, ptr %3, align 4
  br label %28

26:                                               ; preds = %12
  store i32 0, ptr %3, align 4
  br label %28

27:                                               ; preds = %2
  store i32 0, ptr %3, align 4
  br label %28

28:                                               ; preds = %27, %26, %25, %24, %20, %19, %18
  %29 = load i32, ptr %3, align 4
  ret i32 %29
}

; Function Attrs: nounwind uwtable
define i32 @dt_develop_blend_default_module_blend_colorspace(ptr noundef %0) #0 {
  %2 = alloca ptr, align 8
  %3 = alloca i32, align 4
  store ptr %0, ptr %2, align 8, !tbaa !6
  call void @llvm.lifetime.start.p0(i64 4, ptr %3) #10
  %4 = call i32 @dt_is_scene_referred()
  store i32 %4, ptr %3, align 4, !tbaa !11
  %5 = load ptr, ptr %2, align 8, !tbaa !6
  %6 = load i32, ptr %3, align 4, !tbaa !11
  %7 = call i32 @_blend_default_module_blend_colorspace(ptr noundef %5, i32 noundef %6)
  call void @llvm.lifetime.end.p0(i64 4, ptr %3) #10
  ret i32 %7
}