; Function Attrs: nounwind uwtable
define range(i32 0, 5) i32 @dt_develop_blend_default_module_blend_colorspace(ptr noundef %0) local_unnamed_addr #0 {
  %2 = tail call i32 @dt_is_scene_referred() #17
  %3 = getelementptr inbounds nuw i8, ptr %0, i64 64
  %4 = load ptr, ptr %3, align 16, !tbaa !6
  %5 = tail call i32 %4() #17
  %6 = and i32 %5, 2
  %.not.i = icmp eq i32 %6, 0
  br i1 %.not.i, label %_blend_default_module_blend_colorspace.exit, label %7

7:                                                ; preds = %1
  %8 = getelementptr inbounds nuw i8, ptr %0, i64 144
  %9 = load ptr, ptr %8, align 16, !tbaa !27
  %10 = tail call i32 %9(ptr noundef nonnull %0, ptr noundef null, ptr noundef null) #17
  switch i32 %10, label %16 [
    i32 0, label %_blend_default_module_blend_colorspace.exit
    i32 1, label %11
    i32 3, label %11
    i32 2, label %12
    i32 4, label %14
    i32 5, label %15
  ]

11:                                               ; preds = %7, %7
  br label %_blend_default_module_blend_colorspace.exit

12:                                               ; preds = %7
  %.not4.i = icmp eq i32 %2, 0
  %13 = select i1 %.not4.i, i32 3, i32 4
  br label %_blend_default_module_blend_colorspace.exit

14:                                               ; preds = %7
  br label %_blend_default_module_blend_colorspace.exit

15:                                               ; preds = %7
  br label %_blend_default_module_blend_colorspace.exit

16:                                               ; preds = %7
  br label %_blend_default_module_blend_colorspace.exit

_blend_default_module_blend_colorspace.exit:      ; preds = %1, %7, %11, %12, %14, %15, %16
  %.0.i = phi i32 [ 0, %16 ], [ 4, %15 ], [ 3, %14 ], [ %13, %12 ], [ 2, %11 ], [ 1, %7 ], [ 0, %1 ]
  ret i32 %.0.i
}